target datalayout = "e-m:e-p270:32:32-p271:32:32-p272:64:64-i64:64-i128:128-f80:128-n8:16:32:64-S128"
target triple = "x86_64-pc-linux-gnu"

%struct.Query = type { i32, i32, i32, i64, i8, ptr, i32, i8, i8, i8, i8, i8, i8, i8, i8, i8, i8, i8, ptr, ptr, ptr, ptr, ptr, i32, ptr, ptr, i32, ptr, ptr, ptr, ptr, ptr, i8, ptr, ptr, ptr, ptr, ptr, ptr, ptr, i32, ptr, ptr, ptr, ptr, i32, i32 }
%struct.PlannerInfo = type { i32, ptr, ptr, i32, ptr, ptr, ptr, ptr, i32, ptr, ptr, ptr, ptr, ptr, ptr, ptr, ptr, i32, ptr, ptr, ptr, ptr, ptr, i8, ptr, ptr, ptr, ptr, ptr, i32, ptr, ptr, ptr, ptr, ptr, ptr, ptr, i32, ptr, ptr, ptr, i32, ptr, ptr, ptr, ptr, ptr, ptr, [8 x ptr], [8 x ptr], ptr, ptr, ptr, ptr, ptr, ptr, ptr, double, double, double, i32, i8, i8, i8, i8, i8, i8, i8, i32, ptr, ptr, i32, i8, i8, i32, ptr, ptr, ptr, ptr, ptr, ptr, i8, ptr }

; Function Attrs: nounwind uwtable
define internal ptr @preprocess_expression(ptr noundef %0, ptr noundef %1, i32 noundef %2) #0 {
  %4 = alloca ptr, align 8
  %5 = alloca ptr, align 8
  %6 = alloca ptr, align 8
  %7 = alloca i32, align 4
  store ptr %0, ptr %5, align 8
  store ptr %1, ptr %6, align 8
  store i32 %2, ptr %7, align 4
  %8 = load ptr, ptr %6, align 8
  %9 = icmp eq ptr %8, null
  br i1 %9, label %10, label %11

10:                                               ; preds = %3
  store ptr null, ptr %4, align 8
  br label %86

11:                                               ; preds = %3
  %12 = load ptr, ptr %5, align 8
  %13 = getelementptr inbounds nuw %struct.PlannerInfo, ptr %12, i32 0, i32 61
  %14 = load i8, ptr %13, align 4, !range !4, !noundef !5
  %15 = trunc i8 %14 to i1
  br i1 %15, label %16, label %35

16:                                               ; preds = %11
  %17 = load i32, ptr %7, align 4
  %18 = icmp eq i32 %17, 2
  br i1 %18, label %35, label %19

19:                                               ; preds = %16
  %20 = load i32, ptr %7, align 4
  %21 = icmp eq i32 %20, 4
  br i1 %21, label %35, label %22

22:                                               ; preds = %19
  %23 = load i32, ptr %7, align 4
  %24 = icmp eq i32 %23, 9
  br i1 %24, label %35, label %25

25:                                               ; preds = %22
  %26 = load i32, ptr %7, align 4
  %27 = icmp eq i32 %26, 11
  br i1 %27, label %35, label %28

28:                                               ; preds = %25
  %29 = load ptr, ptr %5, align 8
  %30 = load ptr, ptr %5, align 8
  %31 = getelementptr inbounds nuw %struct.PlannerInfo, ptr %30, i32 0, i32 1
  %32 = load ptr, ptr %31, align 8
  %33 = load ptr, ptr %6, align 8
  %34 = call ptr @flatten_join_alias_vars(ptr noundef %29, ptr noundef %32, ptr noundef %33)
  store ptr %34, ptr %6, align 8
  br label %35

35:                                               ; preds = %28, %25, %22, %19, %16, %11
  %36 = load i32, ptr %7, align 4
  %37 = icmp ne i32 %36, 2
  br i1 %37, label %38, label %42

38:                                               ; preds = %35
  %39 = load ptr, ptr %5, align 8
  %40 = load ptr, ptr %6, align 8
  %41 = call ptr @eval_const_expressions(ptr noundef %39, ptr noundef %40)
  store ptr %41, ptr %6, align 8
  br label %42

42:                                               ; preds = %38, %35
  %43 = load i32, ptr %7, align 4
  %44 = icmp eq i32 %43, 0
  br i1 %44, label %45, label %48

45:                                               ; preds = %42
  %46 = load ptr, ptr %6, align 8
  %47 = call ptr @canonicalize_qual(ptr noundef %46, i1 noundef zeroext false)
  store ptr %47, ptr %6, align 8
  br label %48

48:                                               ; preds = %45, %42
  %49 = load i32, ptr %7, align 4
  %50 = icmp eq i32 %49, 0
  br i1 %50, label %54, label %51

51:                                               ; preds = %48
  %52 = load i32, ptr %7, align 4
  %53 = icmp eq i32 %52, 1
  br i1 %53, label %54, label %56

54:                                               ; preds = %51, %48
  %55 = load ptr, ptr %6, align 8
  call void @convert_saop_to_hashed_saop(ptr noundef %55)
  br label %56

56:                                               ; preds = %54, %51
  %57 = load ptr, ptr %5, align 8
  %58 = getelementptr inbounds nuw %struct.PlannerInfo, ptr %57, i32 0, i32 1
  %59 = load ptr, ptr %58, align 8
  %60 = getelementptr inbounds nuw %struct.Query, ptr %59, i32 0, i32 10
  %61 = load i8, ptr %60, align 1, !range !4, !noundef !5
  %62 = trunc i8 %61 to i1
  br i1 %62, label %63, label %69

63:                                               ; preds = %56
  %64 = load ptr, ptr %5, align 8
  %65 = load ptr, ptr %6, align 8
  %66 = load i32, ptr %7, align 4
  %67 = icmp eq i32 %66, 0
  %68 = call ptr @SS_process_sublinks(ptr noundef %64, ptr noundef %65, i1 noundef zeroext %67)
  store ptr %68, ptr %6, align 8
  br label %69

69:                                               ; preds = %63, %56
  %70 = load ptr, ptr %5, align 8
  %71 = getelementptr inbounds nuw %struct.PlannerInfo, ptr %70, i32 0, i32 3
  %72 = load i32, ptr %71, align 8
  %73 = icmp ugt i32 %72, 1
  br i1 %73, label %74, label %78

74:                                               ; preds = %69
  %75 = load ptr, ptr %5, align 8
  %76 = load ptr, ptr %6, align 8
  %77 = call ptr @SS_replace_correlation_vars(ptr noundef %75, ptr noundef %76)
  store ptr %77, ptr %6, align 8
  br label %78

78:                                               ; preds = %74, %69
  %79 = load i32, ptr %7, align 4
  %80 = icmp eq i32 %79, 0
  br i1 %80, label %81, label %84

81:                                               ; preds = %78
  %82 = load ptr, ptr %6, align 8
  %83 = call ptr @make_ands_implicit(ptr noundef %82)
  store ptr %83, ptr %6, align 8
  br label %84

84:                                               ; preds = %81, %78
  %85 = load ptr, ptr %6, align 8
  store ptr %85, ptr %4, align 8
  br label %86

86:                                               ; preds = %84, %10
  %87 = load ptr, ptr %4, align 8
  ret ptr %87
}

; Function Attrs: nounwind uwtable
define dso_local ptr @preprocess_phv_expression(ptr noundef %0, ptr noundef %1) #0 {
  %3 = alloca ptr, align 8
  %4 = alloca ptr, align 8
  store ptr %0, ptr %3, align 8
  store ptr %1, ptr %4, align 8
  %5 = load ptr, ptr %3, align 8
  %6 = load ptr, ptr %4, align 8
  %7 = call ptr @preprocess_expression(ptr noundef %5, ptr noundef %6, i32 noundef 8)
  ret ptr %7
}