; Function Attrs: nounwind uwtable
define dso_local ptr @preprocess_phv_expression(ptr noundef %0, ptr noundef %1) local_unnamed_addr #0 {
  %3 = icmp eq ptr %1, null
  br i1 %3, label %preprocess_expression.exit, label %4

4:                                                ; preds = %2
  %5 = getelementptr inbounds nuw i8, ptr %0, i64 596
  %6 = load i8, ptr %5, align 4, !range !4, !noundef !5
  %7 = trunc nuw i8 %6 to i1
  br i1 %7, label %8, label %12

8:                                                ; preds = %4
  %9 = getelementptr inbounds nuw i8, ptr %0, i64 8
  %10 = load ptr, ptr %9, align 8
  %11 = tail call ptr @flatten_join_alias_vars(ptr noundef nonnull %0, ptr noundef %10, ptr noundef nonnull %1) #12
  br label %12

12:                                               ; preds = %8, %4
  %.036.i = phi ptr [ %1, %4 ], [ %11, %8 ]
  %13 = tail call ptr @eval_const_expressions(ptr noundef nonnull %0, ptr noundef %.036.i) #12
  %14 = getelementptr inbounds nuw i8, ptr %0, i64 8
  %15 = load ptr, ptr %14, align 8
  %16 = getelementptr inbounds nuw i8, ptr %15, i64 47
  %17 = load i8, ptr %16, align 1, !range !4, !noundef !5
  %18 = trunc nuw i8 %17 to i1
  br i1 %18, label %19, label %21

19:                                               ; preds = %12
  %20 = tail call ptr @SS_process_sublinks(ptr noundef nonnull %0, ptr noundef %13, i1 noundef zeroext false) #12
  br label %21

21:                                               ; preds = %19, %12
  %.3.i = phi ptr [ %20, %19 ], [ %13, %12 ]
  %22 = getelementptr inbounds nuw i8, ptr %0, i64 24
  %23 = load i32, ptr %22, align 8
  %24 = icmp ugt i32 %23, 1
  br i1 %24, label %25, label %preprocess_expression.exit

25:                                               ; preds = %21
  %26 = tail call ptr @SS_replace_correlation_vars(ptr noundef nonnull %0, ptr noundef %.3.i) #12
  br label %preprocess_expression.exit

preprocess_expression.exit:                       ; preds = %21, %25, %2
  %.0.i = phi ptr [ null, %2 ], [ %26, %25 ], [ %.3.i, %21 ]
  ret ptr %.0.i
}